target datalayout = "e-m:e-p270:32:32-p271:32:32-p272:64:64-i64:64-i128:128-f80:128-n8:16:32:64-S128"
target triple = "x86_64-pc-linux-gnu"

%struct.Qureg = type { i32, i32, i32, i64, i64, i32, i32, %struct.ComplexArray, %struct.ComplexArray, %struct.ComplexArray, ptr, ptr, ptr, ptr, ptr, ptr }
%struct.ComplexArray = type { ptr, ptr }
%struct.ComplexMatrix4 = type { [4 x [4 x double]], [4 x [4 x double]] }

@__func__.controlledTwoQubitUnitary = private unnamed_addr constant [26 x i8] c"controlledTwoQubitUnitary\00", align 1
@.str.3 = private unnamed_addr constant [61 x i8] c"Here, an undisclosed controlled 2-qubit unitary was applied.\00", align 1

; Function Attrs: nounwind uwtable
define void @controlledTwoQubitUnitary(ptr noundef byval(%struct.Qureg) align 8 %0, i32 noundef %1, i32 noundef %2, i32 noundef %3, ptr noundef byval(%struct.ComplexMatrix4) align 8 %4) #0 {
  %6 = alloca i32, align 4
  %7 = alloca i32, align 4
  %8 = alloca i32, align 4
  %9 = alloca [1 x i32], align 4
  %10 = alloca [2 x i32], align 4
  %11 = alloca i32, align 4
  %12 = alloca %struct.ComplexMatrix4, align 8
  store i32 %1, ptr %6, align 4, !tbaa !4
  store i32 %2, ptr %7, align 4, !tbaa !4
  store i32 %3, ptr %8, align 4, !tbaa !4
  %13 = load i32, ptr %6, align 4, !tbaa !4
  store i32 %13, ptr %9, align 4, !tbaa !4
  %14 = getelementptr inbounds [1 x i32], ptr %9, i64 0, i64 0
  %15 = load i32, ptr %7, align 4, !tbaa !4
  store i32 %15, ptr %10, align 4, !tbaa !4
  %16 = getelementptr inbounds i32, ptr %10, i64 1
  %17 = load i32, ptr %8, align 4, !tbaa !4
  store i32 %17, ptr %16, align 4, !tbaa !4
  %18 = getelementptr inbounds [2 x i32], ptr %10, i64 0, i64 0
  call void @validateMultiControlsMultiTargets(ptr noundef byval(%struct.Qureg) align 8 %0, ptr noundef %14, i32 noundef 1, ptr noundef %18, i32 noundef 2, ptr noundef @__func__.controlledTwoQubitUnitary)
  call void @validateTwoQubitUnitaryMatrix(ptr noundef byval(%struct.Qureg) align 8 %0, ptr noundef byval(%struct.ComplexMatrix4) align 8 %4, ptr noundef @__func__.controlledTwoQubitUnitary)
  %19 = load i32, ptr %6, align 4, !tbaa !4
  %20 = load i32, ptr %7, align 4, !tbaa !4
  %21 = load i32, ptr %8, align 4, !tbaa !4
  call void @statevec_controlledTwoQubitUnitary(ptr noundef byval(%struct.Qureg) align 8 %0, i32 noundef %19, i32 noundef %20, i32 noundef %21, ptr noundef byval(%struct.ComplexMatrix4) align 8 %4)
  %22 = getelementptr inbounds nuw %struct.Qureg, ptr %0, i32 0, i32 0
  %23 = load i32, ptr %22, align 8, !tbaa !13
  %24 = icmp ne i32 %23, 0
  br i1 %24, label %25, label %37

25:                                               ; preds = %5
  call void @llvm.lifetime.start.p0(i64 4, ptr %11) #7
  %26 = getelementptr inbounds nuw %struct.Qureg, ptr %0, i32 0, i32 1
  %27 = load i32, ptr %26, align 4, !tbaa !18
  store i32 %27, ptr %11, align 4, !tbaa !4
  %28 = load i32, ptr %6, align 4, !tbaa !4
  %29 = load i32, ptr %11, align 4, !tbaa !4
  %30 = add nsw i32 %28, %29
  %31 = load i32, ptr %7, align 4, !tbaa !4
  %32 = load i32, ptr %11, align 4, !tbaa !4
  %33 = add nsw i32 %31, %32
  %34 = load i32, ptr %8, align 4, !tbaa !4
  %35 = load i32, ptr %11, align 4, !tbaa !4
  %36 = add nsw i32 %34, %35
  call void @getConjugateMatrix4(ptr dead_on_unwind writable sret(%struct.ComplexMatrix4) align 8 %12, ptr noundef byval(%struct.ComplexMatrix4) align 8 %4)
  call void @statevec_controlledTwoQubitUnitary(ptr noundef byval(%struct.Qureg) align 8 %0, i32 noundef %30, i32 noundef %33, i32 noundef %36, ptr noundef byval(%struct.ComplexMatrix4) align 8 %12)
  call void @llvm.lifetime.end.p0(i64 4, ptr %11) #7
  br label %37

37:                                               ; preds = %25, %5
  call void (ptr, ptr, ...) @qasm_recordComment(ptr noundef byval(%struct.Qureg) align 8 %0, ptr noundef @.str.3)
  ret void
}