; Function Attrs: nounwind uwtable
define void @controlledTwoQubitUnitary(ptr noundef readonly byval(%struct.Qureg) align 8 captures(none) %0, i32 noundef %1, i32 noundef %2, i32 noundef %3, ptr noundef readonly byval(%struct.ComplexMatrix4) align 8 captures(none) %4) local_unnamed_addr #0 {
  %6 = alloca [1 x i32], align 4
  %7 = alloca [2 x i32], align 4
  %8 = alloca %struct.ComplexMatrix4, align 8
  store i32 %1, ptr %6, align 4, !tbaa !20
  store i32 %2, ptr %7, align 4, !tbaa !20
  %9 = getelementptr inbounds nuw i8, ptr %7, i64 4
  store i32 %3, ptr %9, align 4, !tbaa !20
  call void @validateMultiControlsMultiTargets(ptr noundef nonnull byval(%struct.Qureg) align 8 %0, ptr noundef nonnull %6, i32 noundef 1, ptr noundef nonnull %7, i32 noundef 2, ptr noundef nonnull @__func__.controlledTwoQubitUnitary) #17
  call void @validateTwoQubitUnitaryMatrix(ptr noundef nonnull byval(%struct.Qureg) align 8 %0, ptr noundef nonnull byval(%struct.ComplexMatrix4) align 8 %4, ptr noundef nonnull @__func__.controlledTwoQubitUnitary) #17
  call void @statevec_controlledTwoQubitUnitary(ptr noundef nonnull byval(%struct.Qureg) align 8 %0, i32 noundef %1, i32 noundef %2, i32 noundef %3, ptr noundef nonnull byval(%struct.ComplexMatrix4) align 8 %4) #17
  %10 = load i32, ptr %0, align 8, !tbaa !12
  %.not = icmp eq i32 %10, 0
  br i1 %.not, label %17, label %11

11:                                               ; preds = %5
  %12 = getelementptr inbounds nuw i8, ptr %0, i64 4
  %13 = load i32, ptr %12, align 4, !tbaa !17
  %14 = add nsw i32 %13, %1
  %15 = add nsw i32 %13, %2
  %16 = add nsw i32 %13, %3
  call void @getConjugateMatrix4(ptr dead_on_unwind nonnull writable sret(%struct.ComplexMatrix4) align 8 %8, ptr noundef nonnull byval(%struct.ComplexMatrix4) align 8 %4) #17
  call void @statevec_controlledTwoQubitUnitary(ptr noundef nonnull byval(%struct.Qureg) align 8 %0, i32 noundef %14, i32 noundef %15, i32 noundef %16, ptr noundef nonnull byval(%struct.ComplexMatrix4) align 8 %8) #17
  br label %17

17:                                               ; preds = %11, %5
  call void (ptr, ptr, ...) @qasm_recordComment(ptr noundef nonnull byval(%struct.Qureg) align 8 %0, ptr noundef nonnull @.str.3) #17
  ret void
}